; Function Attrs: alwaysinline norecurse nounwind uwtable
define internal void @_ZN8LightGBM16MultiValDenseBinIhE9CopyInnerILb1ELb0EEEvPKNS_11MultiValBinEPKiiRKSt6vectorIiSaIiEE.omp_outlined(ptr noalias noundef readonly captures(none) %0, ptr noalias readnone captures(none) %1, ptr noundef nonnull readonly align 4 captures(none) dereferenceable(4) %2, ptr noundef nonnull readonly align 4 captures(none) dereferenceable(4) %3, ptr noundef readonly captures(none) %4, ptr noundef nonnull readonly align 8 captures(none) dereferenceable(8) %5, ptr noundef nonnull readonly align 8 captures(none) dereferenceable(8) %6, ptr nonnull readnone align 8 captures(none) %7) #21 personality ptr @__gxx_personality_v0 {
  %9 = alloca i32, align 4
  %10 = alloca i32, align 4
  %11 = alloca i32, align 4
  %12 = alloca i32, align 4
  %13 = load i32, ptr %2, align 4, !tbaa !10
  %14 = add nsw i32 %13, -1
  %15 = icmp sgt i32 %13, 0
  br i1 %15, label %16, label %70

16:                                               ; preds = %8
  call void @llvm.lifetime.start.p0(i64 4, ptr nonnull %9) #22
  store i32 0, ptr %9, align 4, !tbaa !10
  call void @llvm.lifetime.start.p0(i64 4, ptr nonnull %10) #22
  store i32 %14, ptr %10, align 4, !tbaa !10
  call void @llvm.lifetime.start.p0(i64 4, ptr nonnull %11) #22
  store i32 1, ptr %11, align 4, !tbaa !10
  call void @llvm.lifetime.start.p0(i64 4, ptr nonnull %12) #22
  store i32 0, ptr %12, align 4, !tbaa !10
  %17 = load i32, ptr %0, align 4, !tbaa !10
  call void @__kmpc_for_static_init_4(ptr nonnull @1, i32 %17, i32 33, ptr nonnull %12, ptr nonnull %9, ptr nonnull %10, ptr nonnull %11, i32 1, i32 1)
  %18 = load i32, ptr %10, align 4, !tbaa !10
  %19 = call i32 @llvm.smin.i32(i32 %18, i32 %14)
  store i32 %19, ptr %10, align 4, !tbaa !10
  %20 = load i32, ptr %9, align 4, !tbaa !10
  %.not44 = icmp sgt i32 %20, %19
  br i1 %.not44, label %._crit_edge45, label %.preheader.lr.ph

.preheader.lr.ph:                                 ; preds = %16
  %21 = getelementptr inbounds nuw i8, ptr %4, i64 8
  %22 = getelementptr inbounds nuw i8, ptr %4, i64 16
  %23 = getelementptr inbounds nuw i8, ptr %4, i64 48
  br label %.preheader

.preheader:                                       ; preds = %.preheader.lr.ph, %._crit_edge43
  %24 = phi i32 [ %19, %.preheader.lr.ph ], [ %69, %._crit_edge43 ]
  %25 = phi i32 [ %20, %.preheader.lr.ph ], [ %67, %._crit_edge43 ]
  %.not3340 = icmp sgt i32 %25, %24
  br i1 %.not3340, label %._crit_edge43, label %.lr.ph42

.lr.ph42:                                         ; preds = %.preheader, %._crit_edge39
  %26 = phi i32 [ %36, %._crit_edge39 ], [ %24, %.preheader ]
  %.03041 = phi i32 [ %37, %._crit_edge39 ], [ %25, %.preheader ]
  %27 = load i32, ptr %3, align 4, !tbaa !10
  %28 = mul nsw i32 %27, %.03041
  %29 = add nsw i32 %28, %27
  %30 = load i32, ptr %21, align 4, !tbaa !10
  %.sroa.speculated = call i32 @llvm.smin.i32(i32 %29, i32 %30)
  %31 = icmp slt i32 %28, %.sroa.speculated
  br i1 %31, label %.lr.ph38, label %._crit_edge39

.lr.ph38:                                         ; preds = %.lr.ph42
  %32 = load i32, ptr %22, align 8, !tbaa !469
  %33 = icmp sgt i32 %32, 0
  br i1 %33, label %.lr.ph38.split.preheader, label %._crit_edge39

.lr.ph38.split.preheader:                         ; preds = %.lr.ph38
  %34 = sext i32 %28 to i64
  %35 = sext i32 %.sroa.speculated to i64
  br label %.lr.ph38.split

._crit_edge39.loopexit:                           ; preds = %._crit_edge
  %.pre = load i32, ptr %10, align 4, !tbaa !10
  br label %._crit_edge39

._crit_edge39:                                    ; preds = %.lr.ph38, %._crit_edge39.loopexit, %.lr.ph42
  %36 = phi i32 [ %.pre, %._crit_edge39.loopexit ], [ %26, %.lr.ph42 ], [ %26, %.lr.ph38 ]
  %37 = add nsw i32 %.03041, 1
  %.not33.not = icmp slt i32 %.03041, %36
  br i1 %.not33.not, label %.lr.ph42, label %._crit_edge43.loopexit

.lr.ph38.split:                                   ; preds = %.lr.ph38.split.preheader, %._crit_edge
  %38 = phi i32 [ %32, %.lr.ph38.split.preheader ], [ %51, %._crit_edge ]
  %indvars.iv49 = phi i64 [ %34, %.lr.ph38.split.preheader ], [ %indvars.iv.next50, %._crit_edge ]
  %39 = sext i32 %38 to i64
  %40 = mul nsw i64 %indvars.iv49, %39
  %41 = load ptr, ptr %5, align 8, !tbaa !852
  %42 = load ptr, ptr %6, align 8, !tbaa !27
  %43 = getelementptr inbounds i32, ptr %42, i64 %indvars.iv49
  %44 = load i32, ptr %43, align 4, !tbaa !10
  %45 = sext i32 %44 to i64
  %46 = getelementptr inbounds nuw i8, ptr %41, i64 16
  %47 = load i32, ptr %46, align 8, !tbaa !469
  %48 = sext i32 %47 to i64
  %49 = mul nsw i64 %48, %45
  %50 = icmp sgt i32 %38, 0
  br i1 %50, label %.lr.ph, label %._crit_edge

._crit_edge:                                      ; preds = %.lr.ph, %.lr.ph38.split
  %51 = phi i32 [ %38, %.lr.ph38.split ], [ %62, %.lr.ph ]
  %indvars.iv.next50 = add nsw i64 %indvars.iv49, 1
  %52 = icmp slt i64 %indvars.iv.next50, %35
  br i1 %52, label %.lr.ph38.split, label %._crit_edge39.loopexit, !llvm.loop !861

.lr.ph:                                           ; preds = %.lr.ph38.split, %.lr.ph
  %indvars.iv = phi i64 [ %indvars.iv.next, %.lr.ph ], [ 0, %.lr.ph38.split ]
  %53 = load ptr, ptr %5, align 8, !tbaa !852
  %54 = getelementptr inbounds nuw i8, ptr %53, i64 48
  %55 = load ptr, ptr %54, align 8, !tbaa !12
  %56 = getelementptr i8, ptr %55, i64 %49
  %57 = getelementptr i8, ptr %56, i64 %indvars.iv
  %58 = load i8, ptr %57, align 1, !tbaa !9
  %59 = load ptr, ptr %23, align 8, !tbaa !12
  %60 = getelementptr i8, ptr %59, i64 %40
  %61 = getelementptr i8, ptr %60, i64 %indvars.iv
  store i8 %58, ptr %61, align 1, !tbaa !9
  %indvars.iv.next = add nuw nsw i64 %indvars.iv, 1
  %62 = load i32, ptr %22, align 8, !tbaa !469
  %63 = sext i32 %62 to i64
  %64 = icmp slt i64 %indvars.iv.next, %63
  br i1 %64, label %.lr.ph, label %._crit_edge, !llvm.loop !862

._crit_edge43.loopexit:                           ; preds = %._crit_edge39
  %.pre52 = load i32, ptr %9, align 4, !tbaa !10
  br label %._crit_edge43

._crit_edge43:                                    ; preds = %._crit_edge43.loopexit, %.preheader
  %65 = phi i32 [ %25, %.preheader ], [ %.pre52, %._crit_edge43.loopexit ]
  %.lcssa = phi i32 [ %24, %.preheader ], [ %36, %._crit_edge43.loopexit ]
  %66 = load i32, ptr %11, align 4, !tbaa !10
  %67 = add nsw i32 %66, %65
  store i32 %67, ptr %9, align 4, !tbaa !10
  %68 = add nsw i32 %66, %.lcssa
  %69 = call i32 @llvm.smin.i32(i32 %68, i32 %14)
  store i32 %69, ptr %10, align 4, !tbaa !10
  %.not = icmp sgt i32 %67, %69
  br i1 %.not, label %._crit_edge45, label %.preheader

._crit_edge45:                                    ; preds = %._crit_edge43, %16
  call void @__kmpc_for_static_fini(ptr nonnull @1, i32 %17)
  call void @llvm.lifetime.end.p0(i64 4, ptr nonnull %12) #22
  call void @llvm.lifetime.end.p0(i64 4, ptr nonnull %11) #22
  call void @llvm.lifetime.end.p0(i64 4, ptr nonnull %10) #22
  call void @llvm.lifetime.end.p0(i64 4, ptr nonnull %9) #22
  br label %70

70:                                               ; preds = %._crit_edge45, %8
  ret void
}